---
triple:          'x86_64-apple-darwin'
binary-path:     '/Users/danibri/Desktop/Penguins-Projects/Piscine-Penguin/gato-raton/for'
relocations:
  - { offsetInCU: 0x482D, offset: 0x482D, size: 0x8, addend: 0x0, symName: __ZNSt3__124__put_character_sequenceB8ue170006IcNS_11char_traitsIcEEEERNS_13basic_ostreamIT_T0_EES7_PKS4_m, symObjAddr: 0x2B10, symBinAddr: 0x100003CF0, symSize: 0x1F0 }
  - { offsetInCU: 0x6789, offset: 0x6789, size: 0x8, addend: 0x0, symName: __ZNSt3__1neB8ue170006IP5BoardEEbRKNS_11__wrap_iterIT_EES7_, symObjAddr: 0x7D0, symBinAddr: 0x1000019B0, symSize: 0x30 }
  - { offsetInCU: 0x67CC, offset: 0x67CC, size: 0x8, addend: 0x0, symName: __ZNSt3__13maxB8ue170006IiEERKT_S3_S3_, symObjAddr: 0x820, symBinAddr: 0x100001A00, symSize: 0x30 }
  - { offsetInCU: 0x680F, offset: 0x680F, size: 0x8, addend: 0x0, symName: __ZNSt3__13minB8ue170006IiEERKT_S3_S3_, symObjAddr: 0x8B0, symBinAddr: 0x100001A90, symSize: 0x30 }
  - { offsetInCU: 0x6852, offset: 0x6852, size: 0x8, addend: 0x0, symName: __ZNSt3__1lsB8ue170006INS_11char_traitsIcEEEERNS_13basic_ostreamIcT_EES6_PKc, symObjAddr: 0xC50, symBinAddr: 0x100001E30, symSize: 0x40 }
  - { offsetInCU: 0x6898, offset: 0x6898, size: 0x8, addend: 0x0, symName: __ZNSt3__14endlB8ue170006IcNS_11char_traitsIcEEEERNS_13basic_ostreamIT_T0_EES7_, symObjAddr: 0xCB0, symBinAddr: 0x100001E90, symSize: 0x50 }
  - { offsetInCU: 0x68D8, offset: 0x68D8, size: 0x8, addend: 0x0, symName: __ZNSt3__112__to_addressB8ue170006I5BoardEEPT_S3_, symObjAddr: 0x1160, symBinAddr: 0x100002340, symSize: 0x10 }
  - { offsetInCU: 0x690D, offset: 0x690D, size: 0x8, addend: 0x0, symName: __ZNSt3__13maxB8ue170006ImEERKT_S3_S3_, symObjAddr: 0x1540, symBinAddr: 0x100002720, symSize: 0x30 }
  - { offsetInCU: 0x6950, offset: 0x6950, size: 0x8, addend: 0x0, symName: __ZNSt3__13minB8ue170006ImEERKT_S3_S3_, symObjAddr: 0x1570, symBinAddr: 0x100002750, symSize: 0x30 }
  - { offsetInCU: 0x6B94, offset: 0x6B94, size: 0x8, addend: 0x0, symName: __ZNSt3__13minB8ue170006ImNS_6__lessIvvEEEERKT_S5_S5_T0_, symObjAddr: 0x15F0, symBinAddr: 0x1000027D0, symSize: 0x50 }
  - { offsetInCU: 0x6C64, offset: 0x6C64, size: 0x8, addend: 0x0, symName: __ZNSt3__120__throw_length_errorB8ue170006EPKc, symObjAddr: 0x16D0, symBinAddr: 0x1000028B0, symSize: 0x70 }
  - { offsetInCU: 0x6C8E, offset: 0x6C8E, size: 0x8, addend: 0x0, symName: __ZNSt3__13maxB8ue170006ImNS_6__lessIvvEEEERKT_S5_S5_T0_, symObjAddr: 0x1800, symBinAddr: 0x1000029E0, symSize: 0x50 }
  - { offsetInCU: 0x6CE8, offset: 0x6CE8, size: 0x8, addend: 0x0, symName: __ZNSt3__119__allocate_at_leastB8ue170006INS_9allocatorI5BoardEEEENS_19__allocation_resultINS_16allocator_traitsIT_E7pointerEEERS6_m, symObjAddr: 0x1940, symBinAddr: 0x100002B20, symSize: 0x40 }
  - { offsetInCU: 0x6D2B, offset: 0x6D2B, size: 0x8, addend: 0x0, symName: __ZNSt3__130__libcpp_is_constant_evaluatedB8ue170006Ev, symObjAddr: 0x1AE0, symBinAddr: 0x100002CC0, symSize: 0x10 }
  - { offsetInCU: 0x6D48, offset: 0x6D48, size: 0x8, addend: 0x0, symName: __ZNSt3__117__libcpp_allocateB8ue170006Emm, symObjAddr: 0x1AF0, symBinAddr: 0x100002CD0, symSize: 0x20 }
  - { offsetInCU: 0x6D85, offset: 0x6D85, size: 0x8, addend: 0x0, symName: __ZNSt3__121__libcpp_operator_newB8ue170006IJmEEEPvDpT_, symObjAddr: 0x1B10, symBinAddr: 0x100002CF0, symSize: 0x20 }
  - { offsetInCU: 0x6DBE, offset: 0x6DBE, size: 0x8, addend: 0x0, symName: __ZNSt3__142__uninitialized_allocator_move_if_noexceptB8ue170006INS_9allocatorI5BoardEENS_16reverse_iteratorIPS2_EES6_S2_vEET1_RT_T0_SA_S7_, symObjAddr: 0x1C40, symBinAddr: 0x100002E20, symSize: 0x120 }
  - { offsetInCU: 0x6E3A, offset: 0x6E3A, size: 0x8, addend: 0x0, symName: __ZNSt3__14swapB8ue170006IP5BoardEEvRT_S4_, symObjAddr: 0x1DB0, symBinAddr: 0x100002F90, symSize: 0x40 }
  - { offsetInCU: 0x6E8B, offset: 0x6E8B, size: 0x8, addend: 0x0, symName: __ZNSt3__1neB8ue170006IP5BoardS2_EEbRKNS_16reverse_iteratorIT_EERKNS3_IT0_EE, symObjAddr: 0x1ED0, symBinAddr: 0x1000030B0, symSize: 0x40 }
  - { offsetInCU: 0x6EFC, offset: 0x6EFC, size: 0x8, addend: 0x0, symName: __ZNSt3__114__construct_atB8ue170006I5BoardJS1_EPS1_EEPT_S4_DpOT0_, symObjAddr: 0x1F10, symBinAddr: 0x1000030F0, symSize: 0x30 }
  - { offsetInCU: 0x6F6C, offset: 0x6F6C, size: 0x8, addend: 0x0, symName: __ZNSt3__112__to_addressB8ue170006INS_16reverse_iteratorIP5BoardEEvEEu7__decayIDTclsr19__to_address_helperIT_EE6__callclsr3stdE7declvalIRKS5_EEEEES7_, symObjAddr: 0x1F40, symBinAddr: 0x100003120, symSize: 0x20 }
  - { offsetInCU: 0x6FA2, offset: 0x6FA2, size: 0x8, addend: 0x0, symName: __ZNSt3__14moveB8ue170006INS_16reverse_iteratorIP5BoardEES4_EET0_T_S6_S5_, symObjAddr: 0x1FB0, symBinAddr: 0x100003190, symSize: 0x80 }
  - { offsetInCU: 0x7025, offset: 0x7025, size: 0x8, addend: 0x0, symName: __ZNSt3__16__moveB8ue170006INS_17_ClassicAlgPolicyENS_16reverse_iteratorIP5BoardEES5_S5_EENS_4pairIT0_T2_EES7_T1_S8_, symObjAddr: 0x20A0, symBinAddr: 0x100003280, symSize: 0x90 }
  - { offsetInCU: 0x7091, offset: 0x7091, size: 0x8, addend: 0x0, symName: __ZNSt3__123__dispatch_copy_or_moveB8ue170006INS_17_ClassicAlgPolicyENS_11__move_loopIS1_EENS_14__move_trivialENS_16reverse_iteratorIP5BoardEES8_S8_EENS_4pairIT2_T4_EESA_T3_SB_, symObjAddr: 0x2130, symBinAddr: 0x100003310, symSize: 0x90 }
  - { offsetInCU: 0x710F, offset: 0x710F, size: 0x8, addend: 0x0, symName: __ZNSt3__121__unwrap_and_dispatchB8ue170006INS_10__overloadINS_11__move_loopINS_17_ClassicAlgPolicyEEENS_14__move_trivialEEENS_16reverse_iteratorIP5BoardEESA_SA_Li0EEENS_4pairIT0_T2_EESC_T1_SD_, symObjAddr: 0x21C0, symBinAddr: 0x1000033A0, symSize: 0x210 }
  - { offsetInCU: 0x719E, offset: 0x719E, size: 0x8, addend: 0x0, symName: __ZNSt3__114__unwrap_rangeB8ue170006INS_16reverse_iteratorIP5BoardEES4_EENS_4pairIT0_S6_EET_S8_, symObjAddr: 0x23D0, symBinAddr: 0x1000035B0, symSize: 0x90 }
  - { offsetInCU: 0x72F2, offset: 0x72F2, size: 0x8, addend: 0x0, symName: __ZNSt3__113__unwrap_iterB8ue170006INS_16reverse_iteratorIP5BoardEENS_18__unwrap_iter_implIS4_Lb0EEELi0EEEDTclsrT0_8__unwrapclsr3stdE7declvalIT_EEEES8_, symObjAddr: 0x2500, symBinAddr: 0x1000036E0, symSize: 0x40 }
  - { offsetInCU: 0x7336, offset: 0x7336, size: 0x8, addend: 0x0, symName: __ZNSt3__19make_pairB8ue170006INS_16reverse_iteratorIP5BoardEES4_EENS_4pairINS_18__unwrap_ref_decayIT_E4typeENS6_IT0_E4typeEEEOS7_OSA_, symObjAddr: 0x2540, symBinAddr: 0x100003720, symSize: 0x30 }
  - { offsetInCU: 0x7385, offset: 0x7385, size: 0x8, addend: 0x0, symName: __ZNSt3__114__rewrap_rangeB8ue170006INS_16reverse_iteratorIP5BoardEES4_EET_S5_T0_, symObjAddr: 0x2570, symBinAddr: 0x100003750, symSize: 0x60 }
  - { offsetInCU: 0x73D1, offset: 0x73D1, size: 0x8, addend: 0x0, symName: __ZNSt3__113__rewrap_iterB8ue170006INS_16reverse_iteratorIP5BoardEES4_NS_18__unwrap_iter_implIS4_Lb0EEEEET_S7_T0_, symObjAddr: 0x25D0, symBinAddr: 0x1000037B0, symSize: 0x80 }
  - { offsetInCU: 0x74D8, offset: 0x74D8, size: 0x8, addend: 0x0, symName: __ZNSt3__119__libcpp_deallocateB8ue170006EPvmm, symObjAddr: 0x29C0, symBinAddr: 0x100003BA0, symSize: 0x30 }
  - { offsetInCU: 0x7520, offset: 0x7520, size: 0x8, addend: 0x0, symName: __ZNSt3__127__do_deallocate_handle_sizeB8ue170006IJEEEvPvmDpT_, symObjAddr: 0x29F0, symBinAddr: 0x100003BD0, symSize: 0x20 }
  - { offsetInCU: 0x755E, offset: 0x755E, size: 0x8, addend: 0x0, symName: __ZNSt3__124__libcpp_operator_deleteB8ue170006IJPvEEEvDpT_, symObjAddr: 0x2A10, symBinAddr: 0x100003BF0, symSize: 0x20 }
  - { offsetInCU: 0x7593, offset: 0x7593, size: 0x8, addend: 0x0, symName: __ZNSt3__1lsB8ue170006INS_11char_traitsIcEEEERNS_13basic_ostreamIcT_EES6_c, symObjAddr: 0x2AE0, symBinAddr: 0x100003CC0, symSize: 0x30 }
  - { offsetInCU: 0x75D9, offset: 0x75D9, size: 0x8, addend: 0x0, symName: __ZNSt3__116__pad_and_outputB8ue170006IcNS_11char_traitsIcEEEENS_19ostreambuf_iteratorIT_T0_EES6_PKS4_S8_S8_RNS_8ios_baseES4_, symObjAddr: 0x2D20, symBinAddr: 0x100003F00, symSize: 0x220 }
  - { offsetInCU: 0x76A9, offset: 0x76A9, size: 0x8, addend: 0x0, symName: __ZNSt3__112__to_addressB8ue170006IKcEEPT_S3_, symObjAddr: 0x3240, symBinAddr: 0x100004420, symSize: 0x10 }
  - { offsetInCU: 0x7711, offset: 0x7711, size: 0x8, addend: 0x0, symName: __ZNSt3__19use_facetB8ue170006INS_5ctypeIcEEEERKT_RKNS_6localeE, symObjAddr: 0x34F0, symBinAddr: 0x1000046D0, symSize: 0x30 }
  - { offsetInCU: 0x7BDE, offset: 0x7BDE, size: 0x8, addend: 0x0, symName: __ZNSt3__118__constexpr_strlenB8ue170006EPKc, symObjAddr: 0x35C0, symBinAddr: 0x1000047A0, symSize: 0x20 }
  - { offsetInCU: 0x7C0A, offset: 0x7C0A, size: 0x8, addend: 0x0, symName: __ZNSt3__1eqB8ue170006IP5BoardEEbRKNS_11__wrap_iterIT_EES7_, symObjAddr: 0x3820, symBinAddr: 0x100004A00, symSize: 0x40 }
  - { offsetInCU: 0x7C4D, offset: 0x7C4D, size: 0x8, addend: 0x0, symName: __ZNSt3__13maxB8ue170006IiNS_6__lessIvvEEEERKT_S5_S5_T0_, symObjAddr: 0x3880, symBinAddr: 0x100004A60, symSize: 0x50 }
  - { offsetInCU: 0x7CA7, offset: 0x7CA7, size: 0x8, addend: 0x0, symName: __ZNSt3__13minB8ue170006IiNS_6__lessIvvEEEERKT_S5_S5_T0_, symObjAddr: 0x3910, symBinAddr: 0x100004AF0, symSize: 0x4D }
  - { offsetInCU: 0x7EDF, offset: 0x7EDF, size: 0x8, addend: 0x0, symName: __ZSt28__throw_bad_array_new_lengthB8ue170006v, symObjAddr: 0x1AA0, symBinAddr: 0x100002C80, symSize: 0x40 }
  - { offsetInCU: 0x8403, offset: 0x8403, size: 0x8, addend: 0x0, symName: __ZNSt3__16vectorI5BoardNS_9allocatorIS1_EEE26__swap_out_circular_bufferERNS_14__split_bufferIS1_RS3_EE, symObjAddr: 0x1330, symBinAddr: 0x100002510, symSize: 0x120 }
  - { offsetInCU: 0xA8C6, offset: 0xA8C6, size: 0x8, addend: 0x0, symName: __Z8evaluate5Board, symObjAddr: 0x0, symBinAddr: 0x1000011E0, symSize: 0x80 }
  - { offsetInCU: 0xA8F3, offset: 0xA8F3, size: 0x8, addend: 0x0, symName: __ZN5Board8isWinnerEc, symObjAddr: 0x80, symBinAddr: 0x100001260, symSize: 0x1B0 }
  - { offsetInCU: 0xA95F, offset: 0xA95F, size: 0x8, addend: 0x0, symName: __Z7minimax5Boardib, symObjAddr: 0x230, symBinAddr: 0x100001410, symSize: 0x370 }
  - { offsetInCU: 0xAAB5, offset: 0xAAB5, size: 0x8, addend: 0x0, symName: __ZN5Board11isBoardFullEv, symObjAddr: 0x5A0, symBinAddr: 0x100001780, symSize: 0x90 }
  - { offsetInCU: 0xAB14, offset: 0xAB14, size: 0x8, addend: 0x0, symName: __ZNSt3__114numeric_limitsIiE3minB8ue170006Ev, symObjAddr: 0x630, symBinAddr: 0x100001810, symSize: 0x10 }
  - { offsetInCU: 0xAB28, offset: 0xAB28, size: 0x8, addend: 0x0, symName: __ZN5Board16getPossibleMovesEc, symObjAddr: 0x640, symBinAddr: 0x100001820, symSize: 0x130 }
  - { offsetInCU: 0xABAE, offset: 0xABAE, size: 0x8, addend: 0x0, symName: __ZNSt3__16vectorI5BoardNS_9allocatorIS1_EEE5beginB8ue170006Ev, symObjAddr: 0x770, symBinAddr: 0x100001950, symSize: 0x30 }
  - { offsetInCU: 0xABD4, offset: 0xABD4, size: 0x8, addend: 0x0, symName: __ZNSt3__16vectorI5BoardNS_9allocatorIS1_EEE3endB8ue170006Ev, symObjAddr: 0x7A0, symBinAddr: 0x100001980, symSize: 0x30 }
  - { offsetInCU: 0xABFB, offset: 0xABFB, size: 0x8, addend: 0x0, symName: __ZNKSt3__111__wrap_iterIP5BoardEdeB8ue170006Ev, symObjAddr: 0x800, symBinAddr: 0x1000019E0, symSize: 0x20 }
  - { offsetInCU: 0xAC20, offset: 0xAC20, size: 0x8, addend: 0x0, symName: __ZNSt3__111__wrap_iterIP5BoardEppB8ue170006Ev, symObjAddr: 0x850, symBinAddr: 0x100001A30, symSize: 0x20 }
  - { offsetInCU: 0xAC45, offset: 0xAC45, size: 0x8, addend: 0x0, symName: __ZNSt3__16vectorI5BoardNS_9allocatorIS1_EEED1B8ue170006Ev, symObjAddr: 0x870, symBinAddr: 0x100001A50, symSize: 0x20 }
  - { offsetInCU: 0xAC6E, offset: 0xAC6E, size: 0x8, addend: 0x0, symName: __ZNSt3__114numeric_limitsIiE3maxB8ue170006Ev, symObjAddr: 0x8A0, symBinAddr: 0x100001A80, symSize: 0x10 }
  - { offsetInCU: 0xAC82, offset: 0xAC82, size: 0x8, addend: 0x0, symName: _main, symObjAddr: 0x8E0, symBinAddr: 0x100001AC0, symSize: 0x2B0 }
  - { offsetInCU: 0xACCD, offset: 0xACCD, size: 0x8, addend: 0x0, symName: __ZN5BoardC1Ev, symObjAddr: 0xB90, symBinAddr: 0x100001D70, symSize: 0x20 }
  - { offsetInCU: 0xACF6, offset: 0xACF6, size: 0x8, addend: 0x0, symName: __ZN5Board10printBoardEv, symObjAddr: 0xBB0, symBinAddr: 0x100001D90, symSize: 0xA0 }
  - { offsetInCU: 0xAD55, offset: 0xAD55, size: 0x8, addend: 0x0, symName: __ZNSt3__113basic_ostreamIcNS_11char_traitsIcEEElsB8ue170006EPFRS3_S4_E, symObjAddr: 0xC90, symBinAddr: 0x100001E70, symSize: 0x20 }
  - { offsetInCU: 0xAD88, offset: 0xAD88, size: 0x8, addend: 0x0, symName: __ZNKSt3__16vectorI5BoardNS_9allocatorIS1_EEE5emptyB8ue170006Ev, symObjAddr: 0xD00, symBinAddr: 0x100001EE0, symSize: 0x20 }
  - { offsetInCU: 0xADAC, offset: 0xADAC, size: 0x8, addend: 0x0, symName: __ZNSt3__16vectorI5BoardNS_9allocatorIS1_EEEixB8ue170006Em, symObjAddr: 0xD20, symBinAddr: 0x100001F00, symSize: 0x20 }
  - { offsetInCU: 0xADE2, offset: 0xADE2, size: 0x8, addend: 0x0, symName: __ZNKSt3__16vectorI5BoardNS_9allocatorIS1_EEE4sizeB8ue170006Ev, symObjAddr: 0xD40, symBinAddr: 0x100001F20, symSize: 0x30 }
  - { offsetInCU: 0xAE07, offset: 0xAE07, size: 0x8, addend: 0x0, symName: __ZNSt3__16vectorI5BoardNS_9allocatorIS1_EEEC1B8ue170006Ev, symObjAddr: 0xD70, symBinAddr: 0x100001F50, symSize: 0x20 }
  - { offsetInCU: 0xAE2F, offset: 0xAE2F, size: 0x8, addend: 0x0, symName: __ZNSt3__16vectorI5BoardNS_9allocatorIS1_EEE9push_backB8ue170006ERKS1_, symObjAddr: 0xD90, symBinAddr: 0x100001F70, symSize: 0x60 }
  - { offsetInCU: 0xAE65, offset: 0xAE65, size: 0x8, addend: 0x0, symName: __ZNSt3__16vectorI5BoardNS_9allocatorIS1_EEEC2B8ue170006Ev, symObjAddr: 0xDF0, symBinAddr: 0x100001FD0, symSize: 0x40 }
  - { offsetInCU: 0xAE98, offset: 0xAE98, size: 0x8, addend: 0x0, symName: __ZNSt3__117__compressed_pairIP5BoardNS_9allocatorIS1_EEEC1B8ue170006IDnNS_18__default_init_tagEEEOT_OT0_, symObjAddr: 0xE30, symBinAddr: 0x100002010, symSize: 0x30 }
  - { offsetInCU: 0xAEEF, offset: 0xAEEF, size: 0x8, addend: 0x0, symName: __ZNSt3__117__compressed_pairIP5BoardNS_9allocatorIS1_EEEC2B8ue170006IDnNS_18__default_init_tagEEEOT_OT0_, symObjAddr: 0xE60, symBinAddr: 0x100002040, symSize: 0x40 }
  - { offsetInCU: 0xAF46, offset: 0xAF46, size: 0x8, addend: 0x0, symName: __ZNSt3__122__compressed_pair_elemIP5BoardLi0ELb0EEC2B8ue170006IDnvEEOT_, symObjAddr: 0xEA0, symBinAddr: 0x100002080, symSize: 0x20 }
  - { offsetInCU: 0xAF87, offset: 0xAF87, size: 0x8, addend: 0x0, symName: __ZNSt3__122__compressed_pair_elemINS_9allocatorI5BoardEELi1ELb1EEC2B8ue170006ENS_18__default_init_tagE, symObjAddr: 0xEC0, symBinAddr: 0x1000020A0, symSize: 0x20 }
  - { offsetInCU: 0xAFBB, offset: 0xAFBB, size: 0x8, addend: 0x0, symName: __ZNSt3__19allocatorI5BoardEC2B8ue170006Ev, symObjAddr: 0xEE0, symBinAddr: 0x1000020C0, symSize: 0x20 }
  - { offsetInCU: 0xAFE4, offset: 0xAFE4, size: 0x8, addend: 0x0, symName: __ZNSt3__116__non_trivial_ifILb1ENS_9allocatorI5BoardEEEC2B8ue170006Ev, symObjAddr: 0xF00, symBinAddr: 0x1000020E0, symSize: 0x10 }
  - { offsetInCU: 0xB00D, offset: 0xB00D, size: 0x8, addend: 0x0, symName: __ZNSt3__16vectorI5BoardNS_9allocatorIS1_EEE9__end_capB8ue170006Ev, symObjAddr: 0xF10, symBinAddr: 0x1000020F0, symSize: 0x20 }
  - { offsetInCU: 0xB032, offset: 0xB032, size: 0x8, addend: 0x0, symName: __ZNSt3__16vectorI5BoardNS_9allocatorIS1_EEE22__construct_one_at_endB8ue170006IJRKS1_EEEvDpOT_, symObjAddr: 0xF30, symBinAddr: 0x100002110, symSize: 0xA0 }
  - { offsetInCU: 0xB07F, offset: 0xB07F, size: 0x8, addend: 0x0, symName: __ZNSt3__16vectorI5BoardNS_9allocatorIS1_EEE21__push_back_slow_pathIRKS1_EEvOT_, symObjAddr: 0xFD0, symBinAddr: 0x1000021B0, symSize: 0xE0 }
  - { offsetInCU: 0xB0DC, offset: 0xB0DC, size: 0x8, addend: 0x0, symName: __ZNSt3__117__compressed_pairIP5BoardNS_9allocatorIS1_EEE5firstB8ue170006Ev, symObjAddr: 0x10B0, symBinAddr: 0x100002290, symSize: 0x20 }
  - { offsetInCU: 0xB101, offset: 0xB101, size: 0x8, addend: 0x0, symName: __ZNSt3__122__compressed_pair_elemIP5BoardLi0ELb0EE5__getB8ue170006Ev, symObjAddr: 0x10D0, symBinAddr: 0x1000022B0, symSize: 0x10 }
  - { offsetInCU: 0xB13F, offset: 0xB13F, size: 0x8, addend: 0x0, symName: __ZNSt3__16vectorI5BoardNS_9allocatorIS1_EEE21_ConstructTransactionC1B8ue170006ERS4_m, symObjAddr: 0x10E0, symBinAddr: 0x1000022C0, symSize: 0x30 }
  - { offsetInCU: 0xB186, offset: 0xB186, size: 0x8, addend: 0x0, symName: __ZNSt3__116allocator_traitsINS_9allocatorI5BoardEEE9constructB8ue170006IS2_JRKS2_EvEEvRS3_PT_DpOT0_, symObjAddr: 0x1110, symBinAddr: 0x1000022F0, symSize: 0x30 }
  - { offsetInCU: 0xB1DD, offset: 0xB1DD, size: 0x8, addend: 0x0, symName: __ZNSt3__16vectorI5BoardNS_9allocatorIS1_EEE7__allocB8ue170006Ev, symObjAddr: 0x1140, symBinAddr: 0x100002320, symSize: 0x20 }
  - { offsetInCU: 0xB202, offset: 0xB202, size: 0x8, addend: 0x0, symName: __ZNSt3__16vectorI5BoardNS_9allocatorIS1_EEE21_ConstructTransactionD1B8ue170006Ev, symObjAddr: 0x1170, symBinAddr: 0x100002350, symSize: 0x20 }
  - { offsetInCU: 0xB22B, offset: 0xB22B, size: 0x8, addend: 0x0, symName: __ZNSt3__16vectorI5BoardNS_9allocatorIS1_EEE21_ConstructTransactionC2B8ue170006ERS4_m, symObjAddr: 0x1190, symBinAddr: 0x100002370, symSize: 0x40 }
  - { offsetInCU: 0xB272, offset: 0xB272, size: 0x8, addend: 0x0, symName: __ZNSt3__19allocatorI5BoardE9constructB8ue170006IS1_JRKS1_EEEvPT_DpOT0_, symObjAddr: 0x11D0, symBinAddr: 0x1000023B0, symSize: 0x30 }
  - { offsetInCU: 0xB2C7, offset: 0xB2C7, size: 0x8, addend: 0x0, symName: __ZNSt3__117__compressed_pairIP5BoardNS_9allocatorIS1_EEE6secondB8ue170006Ev, symObjAddr: 0x1200, symBinAddr: 0x1000023E0, symSize: 0x20 }
  - { offsetInCU: 0xB2EC, offset: 0xB2EC, size: 0x8, addend: 0x0, symName: __ZNSt3__122__compressed_pair_elemINS_9allocatorI5BoardEELi1ELb1EE5__getB8ue170006Ev, symObjAddr: 0x1220, symBinAddr: 0x100002400, symSize: 0x10 }
  - { offsetInCU: 0xB311, offset: 0xB311, size: 0x8, addend: 0x0, symName: __ZNSt3__16vectorI5BoardNS_9allocatorIS1_EEE21_ConstructTransactionD2B8ue170006Ev, symObjAddr: 0x1230, symBinAddr: 0x100002410, symSize: 0x20 }
  - { offsetInCU: 0xB339, offset: 0xB339, size: 0x8, addend: 0x0, symName: __ZNKSt3__16vectorI5BoardNS_9allocatorIS1_EEE11__recommendB8ue170006Em, symObjAddr: 0x1250, symBinAddr: 0x100002430, symSize: 0xA0 }
  - { offsetInCU: 0xB38D, offset: 0xB38D, size: 0x8, addend: 0x0, symName: __ZNSt3__114__split_bufferI5BoardRNS_9allocatorIS1_EEEC1EmmS4_, symObjAddr: 0x12F0, symBinAddr: 0x1000024D0, symSize: 0x40 }
  - { offsetInCU: 0xB3E2, offset: 0xB3E2, size: 0x8, addend: 0x0, symName: __ZNSt3__114__split_bufferI5BoardRNS_9allocatorIS1_EEED1Ev, symObjAddr: 0x1450, symBinAddr: 0x100002630, symSize: 0x20 }
  - { offsetInCU: 0xB40C, offset: 0xB40C, size: 0x8, addend: 0x0, symName: __ZNKSt3__16vectorI5BoardNS_9allocatorIS1_EEE8max_sizeEv, symObjAddr: 0x1470, symBinAddr: 0x100002650, symSize: 0x70 }
  - { offsetInCU: 0xB433, offset: 0xB433, size: 0x8, addend: 0x0, symName: __ZNKSt3__16vectorI5BoardNS_9allocatorIS1_EEE20__throw_length_errorB8ue170006Ev, symObjAddr: 0x14E0, symBinAddr: 0x1000026C0, symSize: 0x20 }
  - { offsetInCU: 0xB458, offset: 0xB458, size: 0x8, addend: 0x0, symName: __ZNKSt3__16vectorI5BoardNS_9allocatorIS1_EEE8capacityB8ue170006Ev, symObjAddr: 0x1500, symBinAddr: 0x1000026E0, symSize: 0x40 }
  - { offsetInCU: 0xB487, offset: 0xB487, size: 0x8, addend: 0x0, symName: __ZNSt3__116allocator_traitsINS_9allocatorI5BoardEEE8max_sizeB8ue170006IS3_vEEmRKS3_, symObjAddr: 0x15A0, symBinAddr: 0x100002780, symSize: 0x20 }
  - { offsetInCU: 0xB4B5, offset: 0xB4B5, size: 0x8, addend: 0x0, symName: __ZNKSt3__16vectorI5BoardNS_9allocatorIS1_EEE7__allocB8ue170006Ev, symObjAddr: 0x15C0, symBinAddr: 0x1000027A0, symSize: 0x20 }
  - { offsetInCU: 0xB4DA, offset: 0xB4DA, size: 0x8, addend: 0x0, symName: __ZNSt3__114numeric_limitsIlE3maxB8ue170006Ev, symObjAddr: 0x15E0, symBinAddr: 0x1000027C0, symSize: 0x10 }
  - { offsetInCU: 0xB502, offset: 0xB502, size: 0x8, addend: 0x0, symName: __ZNKSt3__16__lessIvvEclB8ue170006ImmEEbRKT_RKT0_, symObjAddr: 0x1640, symBinAddr: 0x100002820, symSize: 0x30 }
  - { offsetInCU: 0xB555, offset: 0xB555, size: 0x8, addend: 0x0, symName: __ZNKSt3__19allocatorI5BoardE8max_sizeB8ue170006Ev, symObjAddr: 0x1670, symBinAddr: 0x100002850, symSize: 0x20 }
  - { offsetInCU: 0xB57A, offset: 0xB57A, size: 0x8, addend: 0x0, symName: __ZNKSt3__117__compressed_pairIP5BoardNS_9allocatorIS1_EEE6secondB8ue170006Ev, symObjAddr: 0x1690, symBinAddr: 0x100002870, symSize: 0x20 }
  - { offsetInCU: 0xB59F, offset: 0xB59F, size: 0x8, addend: 0x0, symName: __ZNKSt3__122__compressed_pair_elemINS_9allocatorI5BoardEELi1ELb1EE5__getB8ue170006Ev, symObjAddr: 0x16B0, symBinAddr: 0x100002890, symSize: 0x10 }
  - { offsetInCU: 0xB5C4, offset: 0xB5C4, size: 0x8, addend: 0x0, symName: __ZNSt3__123__libcpp_numeric_limitsIlLb1EE3maxB8ue170006Ev, symObjAddr: 0x16C0, symBinAddr: 0x1000028A0, symSize: 0x10 }
  - { offsetInCU: 0xB5D8, offset: 0xB5D8, size: 0x8, addend: 0x0, symName: __ZNSt12length_errorC1B8ue170006EPKc, symObjAddr: 0x1740, symBinAddr: 0x100002920, symSize: 0x30 }
  - { offsetInCU: 0xB60F, offset: 0xB60F, size: 0x8, addend: 0x0, symName: __ZNSt12length_errorC2B8ue170006EPKc, symObjAddr: 0x1770, symBinAddr: 0x100002950, symSize: 0x40 }
  - { offsetInCU: 0xB646, offset: 0xB646, size: 0x8, addend: 0x0, symName: __ZNKSt3__16vectorI5BoardNS_9allocatorIS1_EEE9__end_capB8ue170006Ev, symObjAddr: 0x17B0, symBinAddr: 0x100002990, symSize: 0x20 }
  - { offsetInCU: 0xB66B, offset: 0xB66B, size: 0x8, addend: 0x0, symName: __ZNKSt3__117__compressed_pairIP5BoardNS_9allocatorIS1_EEE5firstB8ue170006Ev, symObjAddr: 0x17D0, symBinAddr: 0x1000029B0, symSize: 0x20 }
  - { offsetInCU: 0xB690, offset: 0xB690, size: 0x8, addend: 0x0, symName: __ZNKSt3__122__compressed_pair_elemIP5BoardLi0ELb0EE5__getB8ue170006Ev, symObjAddr: 0x17F0, symBinAddr: 0x1000029D0, symSize: 0x10 }
  - { offsetInCU: 0xB6B5, offset: 0xB6B5, size: 0x8, addend: 0x0, symName: __ZNSt3__114__split_bufferI5BoardRNS_9allocatorIS1_EEEC2EmmS4_, symObjAddr: 0x1850, symBinAddr: 0x100002A30, symSize: 0xC0 }
  - { offsetInCU: 0xB728, offset: 0xB728, size: 0x8, addend: 0x0, symName: __ZNSt3__117__compressed_pairIP5BoardRNS_9allocatorIS1_EEEC1B8ue170006IDnS5_EEOT_OT0_, symObjAddr: 0x1910, symBinAddr: 0x100002AF0, symSize: 0x30 }
  - { offsetInCU: 0xB77F, offset: 0xB77F, size: 0x8, addend: 0x0, symName: __ZNSt3__114__split_bufferI5BoardRNS_9allocatorIS1_EEE7__allocB8ue170006Ev, symObjAddr: 0x1980, symBinAddr: 0x100002B60, symSize: 0x20 }
  - { offsetInCU: 0xB7A4, offset: 0xB7A4, size: 0x8, addend: 0x0, symName: __ZNSt3__114__split_bufferI5BoardRNS_9allocatorIS1_EEE9__end_capB8ue170006Ev, symObjAddr: 0x19A0, symBinAddr: 0x100002B80, symSize: 0x20 }
  - { offsetInCU: 0xB7C9, offset: 0xB7C9, size: 0x8, addend: 0x0, symName: __ZNSt3__117__compressed_pairIP5BoardRNS_9allocatorIS1_EEEC2B8ue170006IDnS5_EEOT_OT0_, symObjAddr: 0x19C0, symBinAddr: 0x100002BA0, symSize: 0x40 }
  - { offsetInCU: 0xB820, offset: 0xB820, size: 0x8, addend: 0x0, symName: __ZNSt3__122__compressed_pair_elemIRNS_9allocatorI5BoardEELi1ELb0EEC2B8ue170006IS4_vEEOT_, symObjAddr: 0x1A00, symBinAddr: 0x100002BE0, symSize: 0x20 }
  - { offsetInCU: 0xB861, offset: 0xB861, size: 0x8, addend: 0x0, symName: __ZNSt3__19allocatorI5BoardE8allocateB8ue170006Em, symObjAddr: 0x1A20, symBinAddr: 0x100002C00, symSize: 0x80 }
  - { offsetInCU: 0xB894, offset: 0xB894, size: 0x8, addend: 0x0, symName: __ZNSt3__117__compressed_pairIP5BoardRNS_9allocatorIS1_EEE6secondB8ue170006Ev, symObjAddr: 0x1B30, symBinAddr: 0x100002D10, symSize: 0x20 }
  - { offsetInCU: 0xB8B9, offset: 0xB8B9, size: 0x8, addend: 0x0, symName: __ZNSt3__122__compressed_pair_elemIRNS_9allocatorI5BoardEELi1ELb0EE5__getB8ue170006Ev, symObjAddr: 0x1B50, symBinAddr: 0x100002D30, symSize: 0x20 }
  - { offsetInCU: 0xB8DE, offset: 0xB8DE, size: 0x8, addend: 0x0, symName: __ZNSt3__117__compressed_pairIP5BoardRNS_9allocatorIS1_EEE5firstB8ue170006Ev, symObjAddr: 0x1B70, symBinAddr: 0x100002D50, symSize: 0x20 }
  - { offsetInCU: 0xB903, offset: 0xB903, size: 0x8, addend: 0x0, symName: __ZNKSt3__16vectorI5BoardNS_9allocatorIS1_EEE17__annotate_deleteB8ue170006Ev, symObjAddr: 0x1B90, symBinAddr: 0x100002D70, symSize: 0xB0 }
  - { offsetInCU: 0xB928, offset: 0xB928, size: 0x8, addend: 0x0, symName: __ZNSt3__116reverse_iteratorIP5BoardEC1B8ue170006ES2_, symObjAddr: 0x1D60, symBinAddr: 0x100002F40, symSize: 0x30 }
  - { offsetInCU: 0xB95F, offset: 0xB95F, size: 0x8, addend: 0x0, symName: __ZNKSt3__116reverse_iteratorIP5BoardE4baseB8ue170006Ev, symObjAddr: 0x1D90, symBinAddr: 0x100002F70, symSize: 0x20 }
  - { offsetInCU: 0xB984, offset: 0xB984, size: 0x8, addend: 0x0, symName: __ZNKSt3__16vectorI5BoardNS_9allocatorIS1_EEE14__annotate_newB8ue170006Em, symObjAddr: 0x1DF0, symBinAddr: 0x100002FD0, symSize: 0xA0 }
  - { offsetInCU: 0xB9B8, offset: 0xB9B8, size: 0x8, addend: 0x0, symName: __ZNKSt3__16vectorI5BoardNS_9allocatorIS1_EEE31__annotate_contiguous_containerB8ue170006EPKvS6_S6_S6_, symObjAddr: 0x1E90, symBinAddr: 0x100003070, symSize: 0x20 }
  - { offsetInCU: 0xBA09, offset: 0xBA09, size: 0x8, addend: 0x0, symName: __ZNKSt3__16vectorI5BoardNS_9allocatorIS1_EEE4dataB8ue170006Ev, symObjAddr: 0x1EB0, symBinAddr: 0x100003090, symSize: 0x20 }
  - { offsetInCU: 0xBA2E, offset: 0xBA2E, size: 0x8, addend: 0x0, symName: __ZNKSt3__116reverse_iteratorIP5BoardEdeB8ue170006Ev, symObjAddr: 0x1F60, symBinAddr: 0x100003140, symSize: 0x30 }
  - { offsetInCU: 0xBA61, offset: 0xBA61, size: 0x8, addend: 0x0, symName: __ZNSt3__116reverse_iteratorIP5BoardEppB8ue170006Ev, symObjAddr: 0x1F90, symBinAddr: 0x100003170, symSize: 0x20 }
  - { offsetInCU: 0xBA8B, offset: 0xBA8B, size: 0x8, addend: 0x0, symName: __ZNSt3__119__to_address_helperINS_16reverse_iteratorIP5BoardEEvE6__callB8ue170006ERKS4_, symObjAddr: 0x2030, symBinAddr: 0x100003210, symSize: 0x50 }
  - { offsetInCU: 0xBAAE, offset: 0xBAAE, size: 0x8, addend: 0x0, symName: __ZNKSt3__116reverse_iteratorIP5BoardEptB8ue170006Ev, symObjAddr: 0x2080, symBinAddr: 0x100003260, symSize: 0x20 }
  - { offsetInCU: 0xBAF6, offset: 0xBAF6, size: 0x8, addend: 0x0, symName: __ZNKSt3__111__move_loopINS_17_ClassicAlgPolicyEEclB8ue170006INS_16reverse_iteratorIP5BoardEES7_S7_EENS_4pairIT_T1_EES9_T0_SA_, symObjAddr: 0x2460, symBinAddr: 0x100003640, symSize: 0xA0 }
  - { offsetInCU: 0xBB65, offset: 0xBB65, size: 0x8, addend: 0x0, symName: __ZNSt3__18_IterOpsINS_17_ClassicAlgPolicyEE11__iter_moveB8ue170006IRNS_16reverse_iteratorIP5BoardEEEENS_9enable_ifIXsr12is_referenceIDTdeclsr3stdE7declvalIRT_EEEEE5valueEDTclsr3stdE4movedeclsr3stdE7declvalISB_EEEEE4typeEOSA_, symObjAddr: 0x2650, symBinAddr: 0x100003830, symSize: 0x20 }
  - { offsetInCU: 0xBB91, offset: 0xBB91, size: 0x8, addend: 0x0, symName: __ZNSt3__18_IterOpsINS_17_ClassicAlgPolicyEE25__validate_iter_referenceB8ue170006IRNS_16reverse_iteratorIP5BoardEEEEvv, symObjAddr: 0x2670, symBinAddr: 0x100003850, symSize: 0x10 }
  - { offsetInCU: 0xBBAF, offset: 0xBBAF, size: 0x8, addend: 0x0, symName: __ZNSt3__118__unwrap_iter_implINS_16reverse_iteratorIP5BoardEELb0EE8__unwrapB8ue170006ES4_, symObjAddr: 0x2680, symBinAddr: 0x100003860, symSize: 0x20 }
  - { offsetInCU: 0xBBD2, offset: 0xBBD2, size: 0x8, addend: 0x0, symName: __ZNSt3__14pairINS_16reverse_iteratorIP5BoardEES4_EC1B8ue170006ERKS4_S7_, symObjAddr: 0x26A0, symBinAddr: 0x100003880, symSize: 0x30 }
  - { offsetInCU: 0xBC17, offset: 0xBC17, size: 0x8, addend: 0x0, symName: __ZNSt3__14pairINS_16reverse_iteratorIP5BoardEES4_EC2B8ue170006ERKS4_S7_, symObjAddr: 0x26D0, symBinAddr: 0x1000038B0, symSize: 0x40 }
  - { offsetInCU: 0xBC5C, offset: 0xBC5C, size: 0x8, addend: 0x0, symName: __ZNSt3__118__unwrap_iter_implINS_16reverse_iteratorIP5BoardEELb0EE8__rewrapB8ue170006ES4_S4_, symObjAddr: 0x2710, symBinAddr: 0x1000038F0, symSize: 0x30 }
  - { offsetInCU: 0xBC8A, offset: 0xBC8A, size: 0x8, addend: 0x0, symName: __ZNSt3__116reverse_iteratorIP5BoardEC2B8ue170006ES2_, symObjAddr: 0x2740, symBinAddr: 0x100003920, symSize: 0x30 }
  - { offsetInCU: 0xBCC1, offset: 0xBCC1, size: 0x8, addend: 0x0, symName: __ZNSt3__114__split_bufferI5BoardRNS_9allocatorIS1_EEED2Ev, symObjAddr: 0x2770, symBinAddr: 0x100003950, symSize: 0x60 }
  - { offsetInCU: 0xBCEC, offset: 0xBCEC, size: 0x8, addend: 0x0, symName: __ZNSt3__114__split_bufferI5BoardRNS_9allocatorIS1_EEE5clearB8ue170006Ev, symObjAddr: 0x27D0, symBinAddr: 0x1000039B0, symSize: 0x20 }
  - { offsetInCU: 0xBD11, offset: 0xBD11, size: 0x8, addend: 0x0, symName: __ZNSt3__116allocator_traitsINS_9allocatorI5BoardEEE10deallocateB8ue170006ERS3_PS2_m, symObjAddr: 0x27F0, symBinAddr: 0x1000039D0, symSize: 0x30 }
  - { offsetInCU: 0xBD53, offset: 0xBD53, size: 0x8, addend: 0x0, symName: __ZNKSt3__114__split_bufferI5BoardRNS_9allocatorIS1_EEE8capacityB8ue170006Ev, symObjAddr: 0x2820, symBinAddr: 0x100003A00, symSize: 0x40 }
  - { offsetInCU: 0xBD78, offset: 0xBD78, size: 0x8, addend: 0x0, symName: __ZNSt3__114__split_bufferI5BoardRNS_9allocatorIS1_EEE17__destruct_at_endB8ue170006EPS1_, symObjAddr: 0x2860, symBinAddr: 0x100003A40, symSize: 0x30 }
  - { offsetInCU: 0xBDAA, offset: 0xBDAA, size: 0x8, addend: 0x0, symName: __ZNSt3__114__split_bufferI5BoardRNS_9allocatorIS1_EEE17__destruct_at_endB8ue170006EPS1_NS_17integral_constantIbLb0EEE, symObjAddr: 0x2890, symBinAddr: 0x100003A70, symSize: 0x80 }
  - { offsetInCU: 0xBDEA, offset: 0xBDEA, size: 0x8, addend: 0x0, symName: __ZNSt3__116allocator_traitsINS_9allocatorI5BoardEEE7destroyB8ue170006IS2_vEEvRS3_PT_, symObjAddr: 0x2910, symBinAddr: 0x100003AF0, symSize: 0x30 }
  - { offsetInCU: 0xBE27, offset: 0xBE27, size: 0x8, addend: 0x0, symName: __ZNSt3__19allocatorI5BoardE7destroyB8ue170006EPS1_, symObjAddr: 0x2940, symBinAddr: 0x100003B20, symSize: 0x10 }
  - { offsetInCU: 0xBE5A, offset: 0xBE5A, size: 0x8, addend: 0x0, symName: __ZNSt3__19allocatorI5BoardE10deallocateB8ue170006EPS1_m, symObjAddr: 0x2950, symBinAddr: 0x100003B30, symSize: 0x70 }
  - { offsetInCU: 0xBE9B, offset: 0xBE9B, size: 0x8, addend: 0x0, symName: __ZNKSt3__114__split_bufferI5BoardRNS_9allocatorIS1_EEE9__end_capB8ue170006Ev, symObjAddr: 0x2A30, symBinAddr: 0x100003C10, symSize: 0x20 }
  - { offsetInCU: 0xBEC0, offset: 0xBEC0, size: 0x8, addend: 0x0, symName: __ZNKSt3__117__compressed_pairIP5BoardRNS_9allocatorIS1_EEE5firstB8ue170006Ev, symObjAddr: 0x2A50, symBinAddr: 0x100003C30, symSize: 0x20 }
  - { offsetInCU: 0xBEE5, offset: 0xBEE5, size: 0x8, addend: 0x0, symName: __ZN5BoardC2Ev, symObjAddr: 0x2A70, symBinAddr: 0x100003C50, symSize: 0x70 }
  - { offsetInCU: 0xBF66, offset: 0xBF66, size: 0x8, addend: 0x0, symName: __ZNKSt3__113basic_ostreamIcNS_11char_traitsIcEEE6sentrycvbB8ue170006Ev, symObjAddr: 0x2D00, symBinAddr: 0x100003EE0, symSize: 0x20 }
  - { offsetInCU: 0xBF8B, offset: 0xBF8B, size: 0x8, addend: 0x0, symName: __ZNSt3__119ostreambuf_iteratorIcNS_11char_traitsIcEEEC1B8ue170006ERNS_13basic_ostreamIcS2_EE, symObjAddr: 0x2F40, symBinAddr: 0x100004120, symSize: 0x30 }
  - { offsetInCU: 0xBFC1, offset: 0xBFC1, size: 0x8, addend: 0x0, symName: __ZNKSt3__18ios_base5flagsB8ue170006Ev, symObjAddr: 0x2F70, symBinAddr: 0x100004150, symSize: 0x20 }
  - { offsetInCU: 0xBFE7, offset: 0xBFE7, size: 0x8, addend: 0x0, symName: __ZNKSt3__19basic_iosIcNS_11char_traitsIcEEE4fillB8ue170006Ev, symObjAddr: 0x2F90, symBinAddr: 0x100004170, symSize: 0x70 }
  - { offsetInCU: 0xC00E, offset: 0xC00E, size: 0x8, addend: 0x0, symName: __ZNKSt3__119ostreambuf_iteratorIcNS_11char_traitsIcEEE6failedB8ue170006Ev, symObjAddr: 0x3000, symBinAddr: 0x1000041E0, symSize: 0x20 }
  - { offsetInCU: 0xC033, offset: 0xC033, size: 0x8, addend: 0x0, symName: __ZNSt3__19basic_iosIcNS_11char_traitsIcEEE8setstateB8ue170006Ej, symObjAddr: 0x3020, symBinAddr: 0x100004200, symSize: 0x30 }
  - { offsetInCU: 0xC066, offset: 0xC066, size: 0x8, addend: 0x0, symName: __ZNKSt3__18ios_base5widthB8ue170006Ev, symObjAddr: 0x3050, symBinAddr: 0x100004230, symSize: 0x20 }
  - { offsetInCU: 0xC08D, offset: 0xC08D, size: 0x8, addend: 0x0, symName: __ZNSt3__115basic_streambufIcNS_11char_traitsIcEEE5sputnB8ue170006EPKcl, symObjAddr: 0x3070, symBinAddr: 0x100004250, symSize: 0x30 }
  - { offsetInCU: 0xC0CE, offset: 0xC0CE, size: 0x8, addend: 0x0, symName: __ZNSt3__112basic_stringIcNS_11char_traitsIcEENS_9allocatorIcEEEC1B8ue170006Emc, symObjAddr: 0x30A0, symBinAddr: 0x100004280, symSize: 0x30 }
  - { offsetInCU: 0xC115, offset: 0xC115, size: 0x8, addend: 0x0, symName: __ZNKSt3__112basic_stringIcNS_11char_traitsIcEENS_9allocatorIcEEE4dataB8ue170006Ev, symObjAddr: 0x30D0, symBinAddr: 0x1000042B0, symSize: 0x30 }
  - { offsetInCU: 0xC139, offset: 0xC139, size: 0x8, addend: 0x0, symName: __ZNSt3__18ios_base5widthB8ue170006El, symObjAddr: 0x3100, symBinAddr: 0x1000042E0, symSize: 0x30 }
  - { offsetInCU: 0xC17E, offset: 0xC17E, size: 0x8, addend: 0x0, symName: __ZNSt3__112basic_stringIcNS_11char_traitsIcEENS_9allocatorIcEEEC2B8ue170006Emc, symObjAddr: 0x3130, symBinAddr: 0x100004310, symSize: 0x50 }
  - { offsetInCU: 0xC1C5, offset: 0xC1C5, size: 0x8, addend: 0x0, symName: __ZNSt3__117__compressed_pairINS_12basic_stringIcNS_11char_traitsIcEENS_9allocatorIcEEE5__repES5_EC1B8ue170006INS_18__default_init_tagESA_EEOT_OT0_, symObjAddr: 0x3180, symBinAddr: 0x100004360, symSize: 0x30 }
  - { offsetInCU: 0xC21C, offset: 0xC21C, size: 0x8, addend: 0x0, symName: __ZNSt3__117__compressed_pairINS_12basic_stringIcNS_11char_traitsIcEENS_9allocatorIcEEE5__repES5_EC2B8ue170006INS_18__default_init_tagESA_EEOT_OT0_, symObjAddr: 0x31B0, symBinAddr: 0x100004390, symSize: 0x30 }
  - { offsetInCU: 0xC273, offset: 0xC273, size: 0x8, addend: 0x0, symName: __ZNSt3__122__compressed_pair_elemINS_12basic_stringIcNS_11char_traitsIcEENS_9allocatorIcEEE5__repELi0ELb0EEC2B8ue170006ENS_18__default_init_tagE, symObjAddr: 0x31E0, symBinAddr: 0x1000043C0, symSize: 0x10 }
  - { offsetInCU: 0xC2A7, offset: 0xC2A7, size: 0x8, addend: 0x0, symName: __ZNSt3__122__compressed_pair_elemINS_9allocatorIcEELi1ELb1EEC2B8ue170006ENS_18__default_init_tagE, symObjAddr: 0x31F0, symBinAddr: 0x1000043D0, symSize: 0x20 }
  - { offsetInCU: 0xC2DB, offset: 0xC2DB, size: 0x8, addend: 0x0, symName: __ZNSt3__19allocatorIcEC2B8ue170006Ev, symObjAddr: 0x3210, symBinAddr: 0x1000043F0, symSize: 0x20 }
  - { offsetInCU: 0xC304, offset: 0xC304, size: 0x8, addend: 0x0, symName: __ZNSt3__116__non_trivial_ifILb1ENS_9allocatorIcEEEC2B8ue170006Ev, symObjAddr: 0x3230, symBinAddr: 0x100004410, symSize: 0x10 }
  - { offsetInCU: 0xC32D, offset: 0xC32D, size: 0x8, addend: 0x0, symName: __ZNKSt3__112basic_stringIcNS_11char_traitsIcEENS_9allocatorIcEEE13__get_pointerB8ue170006Ev, symObjAddr: 0x3250, symBinAddr: 0x100004430, symSize: 0x50 }
  - { offsetInCU: 0xC352, offset: 0xC352, size: 0x8, addend: 0x0, symName: __ZNKSt3__112basic_stringIcNS_11char_traitsIcEENS_9allocatorIcEEE9__is_longB8ue170006Ev, symObjAddr: 0x32A0, symBinAddr: 0x100004480, symSize: 0x60 }
  - { offsetInCU: 0xC377, offset: 0xC377, size: 0x8, addend: 0x0, symName: __ZNKSt3__112basic_stringIcNS_11char_traitsIcEENS_9allocatorIcEEE18__get_long_pointerB8ue170006Ev, symObjAddr: 0x3300, symBinAddr: 0x1000044E0, symSize: 0x20 }
  - { offsetInCU: 0xC39C, offset: 0xC39C, size: 0x8, addend: 0x0, symName: __ZNKSt3__112basic_stringIcNS_11char_traitsIcEENS_9allocatorIcEEE19__get_short_pointerB8ue170006Ev, symObjAddr: 0x3320, symBinAddr: 0x100004500, symSize: 0x30 }
  - { offsetInCU: 0xC3C1, offset: 0xC3C1, size: 0x8, addend: 0x0, symName: __ZNKSt3__117__compressed_pairINS_12basic_stringIcNS_11char_traitsIcEENS_9allocatorIcEEE5__repES5_E5firstB8ue170006Ev, symObjAddr: 0x3350, symBinAddr: 0x100004530, symSize: 0x20 }
  - { offsetInCU: 0xC3E6, offset: 0xC3E6, size: 0x8, addend: 0x0, symName: __ZNKSt3__122__compressed_pair_elemINS_12basic_stringIcNS_11char_traitsIcEENS_9allocatorIcEEE5__repELi0ELb0EE5__getB8ue170006Ev, symObjAddr: 0x3370, symBinAddr: 0x100004550, symSize: 0x10 }
  - { offsetInCU: 0xC40B, offset: 0xC40B, size: 0x8, addend: 0x0, symName: __ZNSt3__114pointer_traitsIPKcE10pointer_toB8ue170006ERS1_, symObjAddr: 0x3380, symBinAddr: 0x100004560, symSize: 0x10 }
  - { offsetInCU: 0xC42E, offset: 0xC42E, size: 0x8, addend: 0x0, symName: __ZNSt3__119ostreambuf_iteratorIcNS_11char_traitsIcEEEC2B8ue170006ERNS_13basic_ostreamIcS2_EE, symObjAddr: 0x3390, symBinAddr: 0x100004570, symSize: 0x60 }
  - { offsetInCU: 0xC464, offset: 0xC464, size: 0x8, addend: 0x0, symName: __ZNKSt3__19basic_iosIcNS_11char_traitsIcEEE5rdbufB8ue170006Ev, symObjAddr: 0x33F0, symBinAddr: 0x1000045D0, symSize: 0x20 }
  - { offsetInCU: 0xC48B, offset: 0xC48B, size: 0x8, addend: 0x0, symName: __ZNKSt3__18ios_base5rdbufB8ue170006Ev, symObjAddr: 0x3410, symBinAddr: 0x1000045F0, symSize: 0x20 }
  - { offsetInCU: 0xC4B0, offset: 0xC4B0, size: 0x8, addend: 0x0, symName: __ZNSt3__111char_traitsIcE11eq_int_typeB8ue170006Eii, symObjAddr: 0x3430, symBinAddr: 0x100004610, symSize: 0x20 }
  - { offsetInCU: 0xC4E3, offset: 0xC4E3, size: 0x8, addend: 0x0, symName: __ZNSt3__111char_traitsIcE3eofB8ue170006Ev, symObjAddr: 0x3450, symBinAddr: 0x100004630, symSize: 0x10 }
  - { offsetInCU: 0xC4F6, offset: 0xC4F6, size: 0x8, addend: 0x0, symName: __ZNKSt3__19basic_iosIcNS_11char_traitsIcEEE5widenB8ue170006Ec, symObjAddr: 0x3460, symBinAddr: 0x100004640, symSize: 0x90 }
  - { offsetInCU: 0xC563, offset: 0xC563, size: 0x8, addend: 0x0, symName: __ZNKSt3__15ctypeIcE5widenB8ue170006Ec, symObjAddr: 0x3520, symBinAddr: 0x100004700, symSize: 0x30 }
  - { offsetInCU: 0xC596, offset: 0xC596, size: 0x8, addend: 0x0, symName: __ZNSt3__18ios_base8setstateB8ue170006Ej, symObjAddr: 0x3550, symBinAddr: 0x100004730, symSize: 0x30 }
  - { offsetInCU: 0xC5CC, offset: 0xC5CC, size: 0x8, addend: 0x0, symName: __ZNSt3__111char_traitsIcE6lengthB8ue170006EPKc, symObjAddr: 0x3580, symBinAddr: 0x100004760, symSize: 0x40 }
  - { offsetInCU: 0xC5EF, offset: 0xC5EF, size: 0x8, addend: 0x0, symName: __ZNSt3__16vectorI5BoardNS_9allocatorIS1_EEED2B8ue170006Ev, symObjAddr: 0x35E0, symBinAddr: 0x1000047C0, symSize: 0x30 }
  - { offsetInCU: 0xC618, offset: 0xC618, size: 0x8, addend: 0x0, symName: __ZNSt3__16vectorI5BoardNS_9allocatorIS1_EEE16__destroy_vectorC1B8ue170006ERS4_, symObjAddr: 0x3610, symBinAddr: 0x1000047F0, symSize: 0x30 }
  - { offsetInCU: 0xC650, offset: 0xC650, size: 0x8, addend: 0x0, symName: __ZNSt3__16vectorI5BoardNS_9allocatorIS1_EEE16__destroy_vectorclB8ue170006Ev, symObjAddr: 0x3640, symBinAddr: 0x100004820, symSize: 0x80 }
  - { offsetInCU: 0xC675, offset: 0xC675, size: 0x8, addend: 0x0, symName: __ZNSt3__16vectorI5BoardNS_9allocatorIS1_EEE16__destroy_vectorC2B8ue170006ERS4_, symObjAddr: 0x36C0, symBinAddr: 0x1000048A0, symSize: 0x20 }
  - { offsetInCU: 0xC6AD, offset: 0xC6AD, size: 0x8, addend: 0x0, symName: __ZNSt3__16vectorI5BoardNS_9allocatorIS1_EEE7__clearB8ue170006Ev, symObjAddr: 0x36E0, symBinAddr: 0x1000048C0, symSize: 0x20 }
  - { offsetInCU: 0xC6D2, offset: 0xC6D2, size: 0x8, addend: 0x0, symName: __ZNSt3__16vectorI5BoardNS_9allocatorIS1_EEE22__base_destruct_at_endB8ue170006EPS1_, symObjAddr: 0x3700, symBinAddr: 0x1000048E0, symSize: 0x90 }
  - { offsetInCU: 0xC715, offset: 0xC715, size: 0x8, addend: 0x0, symName: __ZNSt3__123__libcpp_numeric_limitsIiLb1EE3minB8ue170006Ev, symObjAddr: 0x3790, symBinAddr: 0x100004970, symSize: 0x10 }
  - { offsetInCU: 0xC729, offset: 0xC729, size: 0x8, addend: 0x0, symName: __ZNSt3__16vectorI5BoardNS_9allocatorIS1_EEE11__make_iterB8ue170006EPS1_, symObjAddr: 0x37A0, symBinAddr: 0x100004980, symSize: 0x30 }
  - { offsetInCU: 0xC75D, offset: 0xC75D, size: 0x8, addend: 0x0, symName: __ZNSt3__111__wrap_iterIP5BoardEC1B8ue170006ES2_, symObjAddr: 0x37D0, symBinAddr: 0x1000049B0, symSize: 0x30 }
  - { offsetInCU: 0xC794, offset: 0xC794, size: 0x8, addend: 0x0, symName: __ZNSt3__111__wrap_iterIP5BoardEC2B8ue170006ES2_, symObjAddr: 0x3800, symBinAddr: 0x1000049E0, symSize: 0x20 }
  - { offsetInCU: 0xC7CB, offset: 0xC7CB, size: 0x8, addend: 0x0, symName: __ZNKSt3__111__wrap_iterIP5BoardE4baseB8ue170006Ev, symObjAddr: 0x3860, symBinAddr: 0x100004A40, symSize: 0x20 }
  - { offsetInCU: 0xC7F5, offset: 0xC7F5, size: 0x8, addend: 0x0, symName: __ZNKSt3__16__lessIvvEclB8ue170006IiiEEbRKT_RKT0_, symObjAddr: 0x38D0, symBinAddr: 0x100004AB0, symSize: 0x30 }
  - { offsetInCU: 0xC848, offset: 0xC848, size: 0x8, addend: 0x0, symName: __ZNSt3__123__libcpp_numeric_limitsIiLb1EE3maxB8ue170006Ev, symObjAddr: 0x3900, symBinAddr: 0x100004AE0, symSize: 0x10 }
...
